target datalayout = "e-m:e-p270:32:32-p271:32:32-p272:64:64-i64:64-i128:128-f80:128-n8:16:32:64-S128"
target triple = "x86_64-pc-linux-gnu"

%struct.H5_user_cb_state_t = type { %struct.H5E_user_cb_state_t }
%struct.H5E_user_cb_state_t = type { i32, %union.anon, ptr }
%union.anon = type { ptr }
%struct.H5VL_class_t = type { i32, i32, ptr, i32, i64, ptr, ptr, %struct.H5VL_info_class_t, %struct.H5VL_wrap_class_t, %struct.H5VL_attr_class_t, %struct.H5VL_dataset_class_t, %struct.H5VL_datatype_class_t, %struct.H5VL_file_class_t, %struct.H5VL_group_class_t, %struct.H5VL_link_class_t, %struct.H5VL_object_class_t, %struct.H5VL_introspect_class_t, %struct.H5VL_request_class_t, %struct.H5VL_blob_class_t, %struct.H5VL_token_class_t, ptr }
%struct.H5VL_info_class_t = type { i64, ptr, ptr, ptr, ptr, ptr }
%struct.H5VL_wrap_class_t = type { ptr, ptr, ptr, ptr, ptr }
%struct.H5VL_attr_class_t = type { ptr, ptr, ptr, ptr, ptr, ptr, ptr, ptr }
%struct.H5VL_dataset_class_t = type { ptr, ptr, ptr, ptr, ptr, ptr, ptr, ptr }
%struct.H5VL_datatype_class_t = type { ptr, ptr, ptr, ptr, ptr, ptr }
%struct.H5VL_file_class_t = type { ptr, ptr, ptr, ptr, ptr, ptr }
%struct.H5VL_group_class_t = type { ptr, ptr, ptr, ptr, ptr, ptr }
%struct.H5VL_link_class_t = type { ptr, ptr, ptr, ptr, ptr, ptr }
%struct.H5VL_object_class_t = type { ptr, ptr, ptr, ptr, ptr }
%struct.H5VL_introspect_class_t = type { ptr, ptr, ptr }
%struct.H5VL_request_class_t = type { ptr, ptr, ptr, ptr, ptr, ptr }
%struct.H5VL_blob_class_t = type { ptr, ptr, ptr, ptr }
%struct.H5VL_token_class_t = type { ptr, ptr, ptr }

@.str = private unnamed_addr constant [106 x i8] c"generated/home/dtcxzyw/WorkSpace/Projects/compilers/llvm-opt-benchmark/bench/hdf5/hdf5/src/H5VLcallback.c\00", align 1
@H5E_LIB_g = external global i64, align 8
@H5E_CANTSET_g = external global i64, align 8
@.str.2 = private unnamed_addr constant [37 x i8] c"preparation for user callback failed\00", align 1
@H5E_CANTRESTORE_g = external global i64, align 8
@H5E_VOL_g = external global i64, align 8
@H5VL_init_g = external global i8, align 1
@H5_libterm_g = external global i8, align 1
@H5E_UNSUPPORTED_g = external global i64, align 8
@H5E_CANTOPENOBJ_g = external global i64, align 8
@.str.52 = private unnamed_addr constant [20 x i8] c"dataset open failed\00", align 1
@__func__.H5VL__dataset_open = private unnamed_addr constant [19 x i8] c"H5VL__dataset_open\00", align 1
@.str.182 = private unnamed_addr constant [43 x i8] c"VOL connector has no 'dataset open' method\00", align 1

; Function Attrs: nounwind uwtable
define internal ptr @H5VL__dataset_open(ptr noundef %0, ptr noundef %1, ptr noundef %2, ptr noundef %3, i64 noundef %4, i64 noundef %5, ptr noundef %6) #0 {
  %8 = alloca ptr, align 8
  %9 = alloca ptr, align 8
  %10 = alloca ptr, align 8
  %11 = alloca ptr, align 8
  %12 = alloca ptr, align 8
  %13 = alloca i64, align 8
  %14 = alloca i64, align 8
  %15 = alloca ptr, align 8
  %16 = alloca ptr, align 8
  %17 = alloca i8, align 1
  %18 = alloca %struct.H5_user_cb_state_t, align 8
  %19 = alloca i32, align 4
  store ptr %0, ptr %9, align 8, !tbaa !42
  store ptr %1, ptr %10, align 8, !tbaa !60
  store ptr %2, ptr %11, align 8, !tbaa !54
  store ptr %3, ptr %12, align 8, !tbaa !50
  store i64 %4, ptr %13, align 8, !tbaa !3
  store i64 %5, ptr %14, align 8, !tbaa !3
  store ptr %6, ptr %15, align 8, !tbaa !42
  call void @llvm.lifetime.start.p0(i64 8, ptr %16) #8
  store ptr null, ptr %16, align 8, !tbaa !42
  call void @llvm.lifetime.start.p0(i64 1, ptr %17) #8
  store i8 0, ptr %17, align 1, !tbaa !9
  %20 = load i8, ptr @H5VL_init_g, align 1, !tbaa !9, !range !14, !noundef !15
  %21 = trunc i8 %20 to i1
  br i1 %21, label %26, label %22

22:                                               ; preds = %7
  %23 = load i8, ptr @H5_libterm_g, align 1, !tbaa !9, !range !14, !noundef !15
  %24 = trunc i8 %23 to i1
  %25 = xor i1 %24, true
  br label %26

26:                                               ; preds = %22, %7
  %27 = phi i1 [ true, %7 ], [ %25, %22 ]
  %28 = xor i1 %27, true
  %29 = xor i1 %28, true
  %30 = zext i1 %29 to i32
  %31 = sext i32 %30 to i64
  %32 = call i64 @llvm.expect.i64(i64 %31, i64 1)
  %33 = icmp ne i64 %32, 0
  br i1 %33, label %34, label %141

34:                                               ; preds = %26
  %35 = load ptr, ptr %11, align 8, !tbaa !54
  %36 = getelementptr inbounds nuw %struct.H5VL_class_t, ptr %35, i32 0, i32 10
  %37 = getelementptr inbounds nuw %struct.H5VL_dataset_class_t, ptr %36, i32 0, i32 1
  %38 = load ptr, ptr %37, align 8, !tbaa !82
  %39 = icmp eq ptr null, %38
  br i1 %39, label %40, label %59

40:                                               ; preds = %34
  br label %41

41:                                               ; preds = %40
  br label %42

42:                                               ; preds = %41
  br label %43

43:                                               ; preds = %42
  %44 = load i64, ptr @H5E_VOL_g, align 8, !tbaa !3
  %45 = load i64, ptr @H5E_UNSUPPORTED_g, align 8, !tbaa !3
  %46 = call i32 (ptr, ptr, i32, i64, i64, ptr, ...) @H5E_printf_stack(ptr noundef @.str, ptr noundef @__func__.H5VL__dataset_open, i32 noundef 2047, i64 noundef %44, i64 noundef %45, ptr noundef @.str.182)
  br label %47

47:                                               ; preds = %43
  br label %48

48:                                               ; preds = %47
  store i8 1, ptr %17, align 1, !tbaa !9
  %49 = load i8, ptr %17, align 1, !tbaa !9, !range !14, !noundef !15
  %50 = trunc i8 %49 to i1
  %51 = zext i1 %50 to i8
  store i8 %51, ptr %17, align 1, !tbaa !9
  br label %52

52:                                               ; preds = %48
  br label %53

53:                                               ; preds = %52
  br label %54

54:                                               ; preds = %53
  store ptr null, ptr %16, align 8, !tbaa !42
  br label %140

55:                                               ; No predecessors!
  br label %56

56:                                               ; preds = %55
  br label %57

57:                                               ; preds = %56
  br label %58

58:                                               ; preds = %57
  br label %59

59:                                               ; preds = %58, %34
  call void @llvm.lifetime.start.p0(i64 24, ptr %18) #8
  %60 = call i32 @H5_user_cb_prepare(ptr noundef %18)
  %61 = icmp slt i32 %60, 0
  br i1 %61, label %62, label %81

62:                                               ; preds = %59
  br label %63

63:                                               ; preds = %62
  br label %64

64:                                               ; preds = %63
  br label %65

65:                                               ; preds = %64
  %66 = load i64, ptr @H5E_LIB_g, align 8, !tbaa !3
  %67 = load i64, ptr @H5E_CANTSET_g, align 8, !tbaa !3
  %68 = call i32 (ptr, ptr, i32, i64, i64, ptr, ...) @H5E_printf_stack(ptr noundef @.str, ptr noundef @__func__.H5VL__dataset_open, i32 noundef 2050, i64 noundef %66, i64 noundef %67, ptr noundef @.str.2)
  br label %69

69:                                               ; preds = %65
  br label %70

70:                                               ; preds = %69
  store i8 1, ptr %17, align 1, !tbaa !9
  %71 = load i8, ptr %17, align 1, !tbaa !9, !range !14, !noundef !15
  %72 = trunc i8 %71 to i1
  %73 = zext i1 %72 to i8
  store i8 %73, ptr %17, align 1, !tbaa !9
  br label %74

74:                                               ; preds = %70
  br label %75

75:                                               ; preds = %74
  br label %76

76:                                               ; preds = %75
  store ptr null, ptr %16, align 8, !tbaa !42
  store i32 10, ptr %19, align 4
  br label %115

77:                                               ; No predecessors!
  br label %78

78:                                               ; preds = %77
  br label %79

79:                                               ; preds = %78
  br label %80

80:                                               ; preds = %79
  br label %81

81:                                               ; preds = %80, %59
  %82 = load ptr, ptr %11, align 8, !tbaa !54
  %83 = getelementptr inbounds nuw %struct.H5VL_class_t, ptr %82, i32 0, i32 10
  %84 = getelementptr inbounds nuw %struct.H5VL_dataset_class_t, ptr %83, i32 0, i32 1
  %85 = load ptr, ptr %84, align 8, !tbaa !82
  %86 = load ptr, ptr %9, align 8, !tbaa !42
  %87 = load ptr, ptr %10, align 8, !tbaa !60
  %88 = load ptr, ptr %12, align 8, !tbaa !50
  %89 = load i64, ptr %13, align 8, !tbaa !3
  %90 = load i64, ptr %14, align 8, !tbaa !3
  %91 = load ptr, ptr %15, align 8, !tbaa !42
  %92 = call ptr %85(ptr noundef %86, ptr noundef %87, ptr noundef %88, i64 noundef %89, i64 noundef %90, ptr noundef %91)
  store ptr %92, ptr %16, align 8, !tbaa !42
  %93 = call i32 @H5_user_cb_restore(ptr noundef %18)
  %94 = icmp slt i32 %93, 0
  br i1 %94, label %95, label %114

95:                                               ; preds = %81
  br label %96

96:                                               ; preds = %95
  br label %97

97:                                               ; preds = %96
  br label %98

98:                                               ; preds = %97
  %99 = load i64, ptr @H5E_LIB_g, align 8, !tbaa !3
  %100 = load i64, ptr @H5E_CANTRESTORE_g, align 8, !tbaa !3
  %101 = call i32 (ptr, ptr, i32, i64, i64, ptr, ...) @H5E_printf_stack(ptr noundef @.str, ptr noundef @__func__.H5VL__dataset_open, i32 noundef 2055, i64 noundef %99, i64 noundef %100, ptr noundef @.str.2)
  br label %102

102:                                              ; preds = %98
  br label %103

103:                                              ; preds = %102
  store i8 1, ptr %17, align 1, !tbaa !9
  %104 = load i8, ptr %17, align 1, !tbaa !9, !range !14, !noundef !15
  %105 = trunc i8 %104 to i1
  %106 = zext i1 %105 to i8
  store i8 %106, ptr %17, align 1, !tbaa !9
  br label %107

107:                                              ; preds = %103
  br label %108

108:                                              ; preds = %107
  br label %109

109:                                              ; preds = %108
  store ptr null, ptr %16, align 8, !tbaa !42
  store i32 10, ptr %19, align 4
  br label %115

110:                                              ; No predecessors!
  br label %111

111:                                              ; preds = %110
  br label %112

112:                                              ; preds = %111
  br label %113

113:                                              ; preds = %112
  br label %114

114:                                              ; preds = %113, %81
  store i32 0, ptr %19, align 4
  br label %115

115:                                              ; preds = %109, %76, %114
  call void @llvm.lifetime.end.p0(i64 24, ptr %18) #8
  %116 = load i32, ptr %19, align 4
  switch i32 %116, label %143 [
    i32 0, label %117
    i32 10, label %140
  ]

117:                                              ; preds = %115
  %118 = load ptr, ptr %16, align 8, !tbaa !42
  %119 = icmp eq ptr null, %118
  br i1 %119, label %120, label %139

120:                                              ; preds = %117
  br label %121

121:                                              ; preds = %120
  br label %122

122:                                              ; preds = %121
  br label %123

123:                                              ; preds = %122
  %124 = load i64, ptr @H5E_VOL_g, align 8, !tbaa !3
  %125 = load i64, ptr @H5E_CANTOPENOBJ_g, align 8, !tbaa !3
  %126 = call i32 (ptr, ptr, i32, i64, i64, ptr, ...) @H5E_printf_stack(ptr noundef @.str, ptr noundef @__func__.H5VL__dataset_open, i32 noundef 2057, i64 noundef %124, i64 noundef %125, ptr noundef @.str.52)
  br label %127

127:                                              ; preds = %123
  br label %128

128:                                              ; preds = %127
  store i8 1, ptr %17, align 1, !tbaa !9
  %129 = load i8, ptr %17, align 1, !tbaa !9, !range !14, !noundef !15
  %130 = trunc i8 %129 to i1
  %131 = zext i1 %130 to i8
  store i8 %131, ptr %17, align 1, !tbaa !9
  br label %132

132:                                              ; preds = %128
  br label %133

133:                                              ; preds = %132
  br label %134

134:                                              ; preds = %133
  store ptr null, ptr %16, align 8, !tbaa !42
  br label %140

135:                                              ; No predecessors!
  br label %136

136:                                              ; preds = %135
  br label %137

137:                                              ; preds = %136
  br label %138

138:                                              ; preds = %137
  br label %139

139:                                              ; preds = %138, %117
  br label %140

140:                                              ; preds = %139, %115, %134, %54
  br label %141

141:                                              ; preds = %140, %26
  %142 = load ptr, ptr %16, align 8, !tbaa !42
  store ptr %142, ptr %8, align 8
  store i32 1, ptr %19, align 4
  br label %143

143:                                              ; preds = %141, %115
  call void @llvm.lifetime.end.p0(i64 1, ptr %17) #8
  call void @llvm.lifetime.end.p0(i64 8, ptr %16) #8
  %144 = load ptr, ptr %8, align 8
  ret ptr %144
}