; Function Attrs: nounwind uwtable
define internal fastcc ptr @H5VL__dataset_open(ptr noundef %0, ptr noundef %1, ptr noundef readonly captures(none) %2, ptr noundef %3, i64 noundef %4, i64 noundef %5, ptr noundef %6) unnamed_addr #0 {
  %8 = alloca %struct.H5_user_cb_state_t, align 8
  %9 = load i8, ptr @H5VL_init_g, align 1, !tbaa !33, !range !35, !noundef !36
  %10 = trunc nuw i8 %9 to i1
  %11 = load i8, ptr @H5_libterm_g, align 1, !range !35
  %12 = trunc nuw i8 %11 to i1
  %13 = xor i1 %12, true
  %14 = select i1 %10, i1 true, i1 %13
  br i1 %14, label %15, label %40, !prof !37

15:                                               ; preds = %7
  %16 = getelementptr inbounds nuw i8, ptr %2, i64 208
  %17 = load ptr, ptr %16, align 8, !tbaa !70
  %18 = icmp eq ptr %17, null
  br i1 %18, label %19, label %23

19:                                               ; preds = %15
  %20 = load i64, ptr @H5E_VOL_g, align 8, !tbaa !3
  %21 = load i64, ptr @H5E_UNSUPPORTED_g, align 8, !tbaa !3
  %22 = tail call i32 (ptr, ptr, i32, i64, i64, ptr, ...) @H5E_printf_stack(ptr noundef nonnull @.str, ptr noundef nonnull @__func__.H5VL__dataset_open, i32 noundef 2047, i64 noundef %20, i64 noundef %21, ptr noundef nonnull @.str.182) #7
  br label %40

23:                                               ; preds = %15
  call void @llvm.lifetime.start.p0(i64 24, ptr nonnull %8) #7
  %24 = call i32 @H5_user_cb_prepare(ptr noundef nonnull %8) #7
  %25 = icmp slt i32 %24, 0
  br i1 %25, label %.thread, label %26

26:                                               ; preds = %23
  %27 = load ptr, ptr %16, align 8, !tbaa !70
  %28 = call ptr %27(ptr noundef %0, ptr noundef %1, ptr noundef %3, i64 noundef %4, i64 noundef %5, ptr noundef %6) #7
  %29 = call i32 @H5_user_cb_restore(ptr noundef nonnull %8) #7
  %30 = icmp slt i32 %29, 0
  br i1 %30, label %.thread, label %34

.thread:                                          ; preds = %26, %23
  %H5E_CANTSET_g.sink = phi ptr [ @H5E_CANTSET_g, %23 ], [ @H5E_CANTRESTORE_g, %26 ]
  %.sink = phi i32 [ 2050, %23 ], [ 2055, %26 ]
  %31 = load i64, ptr @H5E_LIB_g, align 8, !tbaa !3
  %32 = load i64, ptr %H5E_CANTSET_g.sink, align 8, !tbaa !3
  %33 = call i32 (ptr, ptr, i32, i64, i64, ptr, ...) @H5E_printf_stack(ptr noundef nonnull @.str, ptr noundef nonnull @__func__.H5VL__dataset_open, i32 noundef %.sink, i64 noundef %31, i64 noundef %32, ptr noundef nonnull @.str.2) #7
  call void @llvm.lifetime.end.p0(i64 24, ptr nonnull %8) #7
  br label %40

34:                                               ; preds = %26
  call void @llvm.lifetime.end.p0(i64 24, ptr nonnull %8) #7
  %35 = icmp eq ptr %28, null
  br i1 %35, label %36, label %40

36:                                               ; preds = %34
  %37 = load i64, ptr @H5E_VOL_g, align 8, !tbaa !3
  %38 = load i64, ptr @H5E_CANTOPENOBJ_g, align 8, !tbaa !3
  %39 = call i32 (ptr, ptr, i32, i64, i64, ptr, ...) @H5E_printf_stack(ptr noundef nonnull @.str, ptr noundef nonnull @__func__.H5VL__dataset_open, i32 noundef 2057, i64 noundef %37, i64 noundef %38, ptr noundef nonnull @.str.52) #7
  br label %40

40:                                               ; preds = %.thread, %34, %7, %36, %19
  %.016 = phi ptr [ null, %19 ], [ %28, %34 ], [ null, %36 ], [ null, %7 ], [ null, %.thread ]
  ret ptr %.016
}